target datalayout = "e-m:e-p270:32:32-p271:32:32-p272:64:64-i64:64-i128:128-f80:128-n8:16:32:64-S128"
target triple = "x86_64-unknown-linux-gnu"

%"class.Imath_3_2::Vec3" = type { float, float, float }
%"class.Imf_3_2::TiledRgbaOutputFile::ToYa" = type { ptr, i8, i32, i32, %"class.Imath_3_2::Vec3", %"class.Imf_3_2::Array2D", ptr, i64, i64 }
%"class.Imf_3_2::Array2D" = type { i64, i64, ptr }
%"struct.Imf_3_2::Rgba" = type { %"class.Imath_3_2::half", %"class.Imath_3_2::half", %"class.Imath_3_2::half", %"class.Imath_3_2::half" }
%"class.Imath_3_2::half" = type { i16 }
%"class.Imf_3_2::FrameBuffer" = type { %"class.std::map.3" }
%"class.std::map.3" = type { %"class.std::_Rb_tree.4" }
%"class.std::_Rb_tree.4" = type { %"struct.std::_Rb_tree<Imf_3_2::Name, std::pair<const Imf_3_2::Name, Imf_3_2::Slice>, std::_Select1st<std::pair<const Imf_3_2::Name, Imf_3_2::Slice>>, std::less<Imf_3_2::Name>>::_Rb_tree_impl" }
%"struct.std::_Rb_tree<Imf_3_2::Name, std::pair<const Imf_3_2::Name, Imf_3_2::Slice>, std::_Select1st<std::pair<const Imf_3_2::Name, Imf_3_2::Slice>>, std::less<Imf_3_2::Name>>::_Rb_tree_impl" = type { %"struct.std::_Rb_tree_key_compare", %"struct.std::_Rb_tree_header" }
%"struct.std::_Rb_tree_key_compare" = type { %"struct.std::less" }
%"struct.std::less" = type { i8 }
%"struct.std::_Rb_tree_header" = type { %"struct.std::_Rb_tree_node_base", i64 }
%"struct.std::_Rb_tree_node_base" = type { i32, ptr, ptr, ptr }
%"struct.Imf_3_2::Slice" = type <{ i32, [4 x i8], ptr, i64, i64, i32, i32, double, i8, i8, [6 x i8] }>
%"class.Imf_3_2::TiledRgbaOutputFile" = type { ptr, ptr, ptr }

@.str.3 = private unnamed_addr constant [2 x i8] c"A\00", align 1
@.str.4 = private unnamed_addr constant [2 x i8] c"R\00", align 1
@.str.5 = private unnamed_addr constant [2 x i8] c"G\00", align 1
@.str.6 = private unnamed_addr constant [2 x i8] c"B\00", align 1

; Function Attrs: mustprogress nounwind uwtable
define linkonce_odr hidden void @_ZNSt15_Rb_tree_header8_M_resetEv(ptr noundef nonnull align 8 dereferenceable(40) %this) #5 comdat align 2 {
entry:
  %this.addr = alloca ptr, align 8
  store ptr %this, ptr %this.addr, align 8
  %this1 = load ptr, ptr %this.addr, align 8
  %_M_header = getelementptr inbounds %"struct.std::_Rb_tree_header", ptr %this1, i32 0, i32 0
  %_M_parent = getelementptr inbounds %"struct.std::_Rb_tree_node_base", ptr %_M_header, i32 0, i32 1
  store ptr null, ptr %_M_parent, align 8
  %_M_header2 = getelementptr inbounds %"struct.std::_Rb_tree_header", ptr %this1, i32 0, i32 0
  %_M_header3 = getelementptr inbounds %"struct.std::_Rb_tree_header", ptr %this1, i32 0, i32 0
  %_M_left = getelementptr inbounds %"struct.std::_Rb_tree_node_base", ptr %_M_header3, i32 0, i32 2
  store ptr %_M_header2, ptr %_M_left, align 8
  %_M_header4 = getelementptr inbounds %"struct.std::_Rb_tree_header", ptr %this1, i32 0, i32 0
  %_M_header5 = getelementptr inbounds %"struct.std::_Rb_tree_header", ptr %this1, i32 0, i32 0
  %_M_right = getelementptr inbounds %"struct.std::_Rb_tree_node_base", ptr %_M_header5, i32 0, i32 3
  store ptr %_M_header4, ptr %_M_right, align 8
  %_M_node_count = getelementptr inbounds %"struct.std::_Rb_tree_header", ptr %this1, i32 0, i32 1
  store i64 0, ptr %_M_node_count, align 8
  ret void
}

; Function Attrs: mustprogress nounwind uwtable
define linkonce_odr hidden void @_ZNSt15__new_allocatorISt13_Rb_tree_nodeISt4pairIKN7Imf_3_24NameENS2_5SliceEEEEC2Ev(ptr noundef nonnull align 1 dereferenceable(1) %this) unnamed_addr #5 comdat align 2 {
entry:
  %this.addr = alloca ptr, align 8
  store ptr %this, ptr %this.addr, align 8
  ret void
}

; Function Attrs: mustprogress nounwind uwtable
define linkonce_odr hidden void @_ZNSt15_Rb_tree_headerC2Ev(ptr noundef nonnull align 8 dereferenceable(40) %this) unnamed_addr #5 comdat align 2 personality ptr @__gxx_personality_v0 {
entry:
  %this.addr = alloca ptr, align 8
  store ptr %this, ptr %this.addr, align 8
  %this1 = load ptr, ptr %this.addr, align 8
  %_M_header2 = getelementptr inbounds %"struct.std::_Rb_tree_header", ptr %this1, i32 0, i32 0
  %_M_color = getelementptr inbounds %"struct.std::_Rb_tree_node_base", ptr %_M_header2, i32 0, i32 0
  store i32 0, ptr %_M_color, align 8
  invoke void @_ZNSt15_Rb_tree_header8_M_resetEv(ptr noundef nonnull align 8 dereferenceable(40) %this1)
          to label %invoke.cont unwind label %terminate.lpad

invoke.cont:                                      ; preds = %entry
  ret void

terminate.lpad:                                   ; preds = %entry
  %0 = landingpad { ptr, i32 }
          catch ptr null
  %1 = extractvalue { ptr, i32 } %0, 0
  call void @__clang_call_terminate(ptr %1) #15
  unreachable
}

; Function Attrs: mustprogress nounwind uwtable
define linkonce_odr hidden void @_ZNSt20_Rb_tree_key_compareISt4lessIN7Imf_3_24NameEEEC2Ev(ptr noundef nonnull align 1 dereferenceable(1) %this) unnamed_addr #5 comdat align 2 {
entry:
  %this.addr = alloca ptr, align 8
  store ptr %this, ptr %this.addr, align 8
  ret void
}

; Function Attrs: mustprogress nounwind uwtable
define linkonce_odr hidden void @_ZNSaISt13_Rb_tree_nodeISt4pairIKN7Imf_3_24NameENS1_5SliceEEEEC2Ev(ptr noundef nonnull align 1 dereferenceable(1) %this) unnamed_addr #5 comdat align 2 {
entry:
  %this.addr = alloca ptr, align 8
  store ptr %this, ptr %this.addr, align 8
  %this1 = load ptr, ptr %this.addr, align 8
  call void @_ZNSt15__new_allocatorISt13_Rb_tree_nodeISt4pairIKN7Imf_3_24NameENS2_5SliceEEEEC2Ev(ptr noundef nonnull align 1 dereferenceable(1) %this1) #3
  ret void
}

; Function Attrs: mustprogress nounwind uwtable
define linkonce_odr hidden void @_ZNSt8_Rb_treeIN7Imf_3_24NameESt4pairIKS1_NS0_5SliceEESt10_Select1stIS5_ESt4lessIS1_ESaIS5_EE13_Rb_tree_implIS9_Lb1EEC2Ev(ptr noundef nonnull align 8 dereferenceable(48) %this) unnamed_addr #5 comdat align 2 {
entry:
  %this.addr = alloca ptr, align 8
  store ptr %this, ptr %this.addr, align 8
  %this1 = load ptr, ptr %this.addr, align 8
  call void @_ZNSaISt13_Rb_tree_nodeISt4pairIKN7Imf_3_24NameENS1_5SliceEEEEC2Ev(ptr noundef nonnull align 1 dereferenceable(1) %this1) #3
  call void @_ZNSt20_Rb_tree_key_compareISt4lessIN7Imf_3_24NameEEEC2Ev(ptr noundef nonnull align 1 dereferenceable(1) %this1) #3
  %0 = getelementptr inbounds i8, ptr %this1, i64 8
  call void @_ZNSt15_Rb_tree_headerC2Ev(ptr noundef nonnull align 8 dereferenceable(40) %0) #3
  ret void
}

; Function Attrs: mustprogress nounwind uwtable
define linkonce_odr hidden void @_ZNSt8_Rb_treeIN7Imf_3_24NameESt4pairIKS1_NS0_5SliceEESt10_Select1stIS5_ESt4lessIS1_ESaIS5_EEC2Ev(ptr noundef nonnull align 8 dereferenceable(48) %this) unnamed_addr #5 comdat align 2 {
entry:
  %this.addr = alloca ptr, align 8
  store ptr %this, ptr %this.addr, align 8
  %this1 = load ptr, ptr %this.addr, align 8
  %_M_impl = getelementptr inbounds %"class.std::_Rb_tree.4", ptr %this1, i32 0, i32 0
  call void @_ZNSt8_Rb_treeIN7Imf_3_24NameESt4pairIKS1_NS0_5SliceEESt10_Select1stIS5_ESt4lessIS1_ESaIS5_EE13_Rb_tree_implIS9_Lb1EEC2Ev(ptr noundef nonnull align 8 dereferenceable(48) %_M_impl) #3
  ret void
}

; Function Attrs: mustprogress nounwind uwtable
define linkonce_odr hidden void @_ZNSt3mapIN7Imf_3_24NameENS0_5SliceESt4lessIS1_ESaISt4pairIKS1_S2_EEEC2Ev(ptr noundef nonnull align 8 dereferenceable(48) %this) unnamed_addr #5 comdat align 2 {
entry:
  %this.addr = alloca ptr, align 8
  store ptr %this, ptr %this.addr, align 8
  %this1 = load ptr, ptr %this.addr, align 8
  %_M_t = getelementptr inbounds %"class.std::map.3", ptr %this1, i32 0, i32 0
  call void @_ZNSt8_Rb_treeIN7Imf_3_24NameESt4pairIKS1_NS0_5SliceEESt10_Select1stIS5_ESt4lessIS1_ESaIS5_EEC2Ev(ptr noundef nonnull align 8 dereferenceable(48) %_M_t) #3
  ret void
}

; Function Attrs: mustprogress nounwind uwtable
define linkonce_odr hidden void @_ZN7Imf_3_211FrameBufferC2Ev(ptr noundef nonnull align 8 dereferenceable(48) %this) unnamed_addr #5 comdat align 2 {
entry:
  %this.addr = alloca ptr, align 8
  store ptr %this, ptr %this.addr, align 8
  %this1 = load ptr, ptr %this.addr, align 8
  %_map = getelementptr inbounds %"class.Imf_3_2::FrameBuffer", ptr %this1, i32 0, i32 0
  call void @_ZNSt3mapIN7Imf_3_24NameENS0_5SliceESt4lessIS1_ESaISt4pairIKS1_S2_EEEC2Ev(ptr noundef nonnull align 8 dereferenceable(48) %_map) #3
  ret void
}

; Function Attrs: mustprogress nounwind uwtable
define hidden void @_ZN7Imf_3_219TiledRgbaOutputFile4ToYa14setFrameBufferEPKNS_4RgbaEmm(ptr noundef nonnull align 8 dereferenceable(80) %this, ptr noundef %base, i64 noundef %xStride, i64 noundef %yStride) #5 align 2 {
entry:
  %this.addr = alloca ptr, align 8
  %base.addr = alloca ptr, align 8
  %xStride.addr = alloca i64, align 8
  %yStride.addr = alloca i64, align 8
  store ptr %this, ptr %this.addr, align 8
  store ptr %base, ptr %base.addr, align 8
  store i64 %xStride, ptr %xStride.addr, align 8
  store i64 %yStride, ptr %yStride.addr, align 8
  %this1 = load ptr, ptr %this.addr, align 8
  %0 = load ptr, ptr %base.addr, align 8
  %_fbBase = getelementptr inbounds %"class.Imf_3_2::TiledRgbaOutputFile::ToYa", ptr %this1, i32 0, i32 6
  store ptr %0, ptr %_fbBase, align 8
  %1 = load i64, ptr %xStride.addr, align 8
  %_fbXStride = getelementptr inbounds %"class.Imf_3_2::TiledRgbaOutputFile::ToYa", ptr %this1, i32 0, i32 7
  store i64 %1, ptr %_fbXStride, align 8
  %2 = load i64, ptr %yStride.addr, align 8
  %_fbYStride = getelementptr inbounds %"class.Imf_3_2::TiledRgbaOutputFile::ToYa", ptr %this1, i32 0, i32 8
  store i64 %2, ptr %_fbYStride, align 8
  ret void
}

; Function Attrs: mustprogress uwtable
define void @_ZN7Imf_3_219TiledRgbaOutputFile14setFrameBufferEPKNS_4RgbaEmm(ptr noundef nonnull align 8 dereferenceable(24) %this, ptr noundef %base, i64 noundef %xStride, i64 noundef %yStride) #4 align 2 personality ptr @__gxx_personality_v0 {
entry:
  %this.addr = alloca ptr, align 8
  %base.addr = alloca ptr, align 8
  %xStride.addr = alloca i64, align 8
  %yStride.addr = alloca i64, align 8
  %xs = alloca i64, align 8
  %ys = alloca i64, align 8
  %fb = alloca %"class.Imf_3_2::FrameBuffer", align 8
  %ref.tmp = alloca %"struct.Imf_3_2::Slice", align 8
  %exn.slot = alloca ptr, align 8
  %ehselector.slot = alloca i32, align 4
  %ref.tmp5 = alloca %"struct.Imf_3_2::Slice", align 8
  %ref.tmp9 = alloca %"struct.Imf_3_2::Slice", align 8
  %ref.tmp13 = alloca %"struct.Imf_3_2::Slice", align 8
  store ptr %this, ptr %this.addr, align 8
  store ptr %base, ptr %base.addr, align 8
  store i64 %xStride, ptr %xStride.addr, align 8
  store i64 %yStride, ptr %yStride.addr, align 8
  %this1 = load ptr, ptr %this.addr, align 8
  %_toYa = getelementptr inbounds %"class.Imf_3_2::TiledRgbaOutputFile", ptr %this1, i32 0, i32 2
  %0 = load ptr, ptr %_toYa, align 8
  %tobool = icmp ne ptr %0, null
  br i1 %tobool, label %if.then, label %if.else

if.then:                                          ; preds = %entry
  %_toYa2 = getelementptr inbounds %"class.Imf_3_2::TiledRgbaOutputFile", ptr %this1, i32 0, i32 2
  %1 = load ptr, ptr %_toYa2, align 8
  %2 = load ptr, ptr %base.addr, align 8
  %3 = load i64, ptr %xStride.addr, align 8
  %4 = load i64, ptr %yStride.addr, align 8
  call void @_ZN7Imf_3_219TiledRgbaOutputFile4ToYa14setFrameBufferEPKNS_4RgbaEmm(ptr noundef nonnull align 8 dereferenceable(80) %1, ptr noundef %2, i64 noundef %3, i64 noundef %4)
  br label %if.end

if.else:                                          ; preds = %entry
  %5 = load i64, ptr %xStride.addr, align 8
  %mul = mul i64 %5, 8
  store i64 %mul, ptr %xs, align 8
  %6 = load i64, ptr %yStride.addr, align 8
  %mul3 = mul i64 %6, 8
  store i64 %mul3, ptr %ys, align 8
  call void @_ZN7Imf_3_211FrameBufferC2Ev(ptr noundef nonnull align 8 dereferenceable(48) %fb) #3
  %7 = load ptr, ptr %base.addr, align 8
  %arrayidx = getelementptr inbounds %"struct.Imf_3_2::Rgba", ptr %7, i64 0
  %r = getelementptr inbounds %"struct.Imf_3_2::Rgba", ptr %arrayidx, i32 0, i32 0
  %8 = load i64, ptr %xs, align 8
  %9 = load i64, ptr %ys, align 8
  invoke void @_ZN7Imf_3_25SliceC1ENS_9PixelTypeEPcmmiidbb(ptr noundef nonnull align 8 dereferenceable(50) %ref.tmp, i32 noundef 1, ptr noundef %r, i64 noundef %8, i64 noundef %9, i32 noundef 1, i32 noundef 1, double noundef 0.000000e+00, i1 noundef zeroext false, i1 noundef zeroext false)
          to label %invoke.cont unwind label %lpad

invoke.cont:                                      ; preds = %if.else
  invoke void @_ZN7Imf_3_211FrameBuffer6insertEPKcRKNS_5SliceE(ptr noundef nonnull align 8 dereferenceable(48) %fb, ptr noundef @.str.4, ptr noundef nonnull align 8 dereferenceable(50) %ref.tmp)
          to label %invoke.cont4 unwind label %lpad

invoke.cont4:                                     ; preds = %invoke.cont
  %10 = load ptr, ptr %base.addr, align 8
  %arrayidx6 = getelementptr inbounds %"struct.Imf_3_2::Rgba", ptr %10, i64 0
  %g = getelementptr inbounds %"struct.Imf_3_2::Rgba", ptr %arrayidx6, i32 0, i32 1
  %11 = load i64, ptr %xs, align 8
  %12 = load i64, ptr %ys, align 8
  invoke void @_ZN7Imf_3_25SliceC1ENS_9PixelTypeEPcmmiidbb(ptr noundef nonnull align 8 dereferenceable(50) %ref.tmp5, i32 noundef 1, ptr noundef %g, i64 noundef %11, i64 noundef %12, i32 noundef 1, i32 noundef 1, double noundef 0.000000e+00, i1 noundef zeroext false, i1 noundef zeroext false)
          to label %invoke.cont7 unwind label %lpad

invoke.cont7:                                     ; preds = %invoke.cont4
  invoke void @_ZN7Imf_3_211FrameBuffer6insertEPKcRKNS_5SliceE(ptr noundef nonnull align 8 dereferenceable(48) %fb, ptr noundef @.str.5, ptr noundef nonnull align 8 dereferenceable(50) %ref.tmp5)
          to label %invoke.cont8 unwind label %lpad

invoke.cont8:                                     ; preds = %invoke.cont7
  %13 = load ptr, ptr %base.addr, align 8
  %arrayidx10 = getelementptr inbounds %"struct.Imf_3_2::Rgba", ptr %13, i64 0
  %b = getelementptr inbounds %"struct.Imf_3_2::Rgba", ptr %arrayidx10, i32 0, i32 2
  %14 = load i64, ptr %xs, align 8
  %15 = load i64, ptr %ys, align 8
  invoke void @_ZN7Imf_3_25SliceC1ENS_9PixelTypeEPcmmiidbb(ptr noundef nonnull align 8 dereferenceable(50) %ref.tmp9, i32 noundef 1, ptr noundef %b, i64 noundef %14, i64 noundef %15, i32 noundef 1, i32 noundef 1, double noundef 0.000000e+00, i1 noundef zeroext false, i1 noundef zeroext false)
          to label %invoke.cont11 unwind label %lpad

invoke.cont11:                                    ; preds = %invoke.cont8
  invoke void @_ZN7Imf_3_211FrameBuffer6insertEPKcRKNS_5SliceE(ptr noundef nonnull align 8 dereferenceable(48) %fb, ptr noundef @.str.6, ptr noundef nonnull align 8 dereferenceable(50) %ref.tmp9)
          to label %invoke.cont12 unwind label %lpad

invoke.cont12:                                    ; preds = %invoke.cont11
  %16 = load ptr, ptr %base.addr, align 8
  %arrayidx14 = getelementptr inbounds %"struct.Imf_3_2::Rgba", ptr %16, i64 0
  %a = getelementptr inbounds %"struct.Imf_3_2::Rgba", ptr %arrayidx14, i32 0, i32 3
  %17 = load i64, ptr %xs, align 8
  %18 = load i64, ptr %ys, align 8
  invoke void @_ZN7Imf_3_25SliceC1ENS_9PixelTypeEPcmmiidbb(ptr noundef nonnull align 8 dereferenceable(50) %ref.tmp13, i32 noundef 1, ptr noundef %a, i64 noundef %17, i64 noundef %18, i32 noundef 1, i32 noundef 1, double noundef 0.000000e+00, i1 noundef zeroext false, i1 noundef zeroext false)
          to label %invoke.cont15 unwind label %lpad

invoke.cont15:                                    ; preds = %invoke.cont12
  invoke void @_ZN7Imf_3_211FrameBuffer6insertEPKcRKNS_5SliceE(ptr noundef nonnull align 8 dereferenceable(48) %fb, ptr noundef @.str.3, ptr noundef nonnull align 8 dereferenceable(50) %ref.tmp13)
          to label %invoke.cont16 unwind label %lpad

invoke.cont16:                                    ; preds = %invoke.cont15
  %_outputFile = getelementptr inbounds %"class.Imf_3_2::TiledRgbaOutputFile", ptr %this1, i32 0, i32 1
  %19 = load ptr, ptr %_outputFile, align 8
  invoke void @_ZN7Imf_3_215TiledOutputFile14setFrameBufferERKNS_11FrameBufferE(ptr noundef nonnull align 8 dereferenceable(25) %19, ptr noundef nonnull align 8 dereferenceable(48) %fb)
          to label %invoke.cont17 unwind label %lpad

invoke.cont17:                                    ; preds = %invoke.cont16
  call void @_ZN7Imf_3_211FrameBufferD2Ev(ptr noundef nonnull align 8 dereferenceable(48) %fb) #3
  br label %if.end

lpad:                                             ; preds = %invoke.cont16, %invoke.cont15, %invoke.cont12, %invoke.cont11, %invoke.cont8, %invoke.cont7, %invoke.cont4, %invoke.cont, %if.else
  %20 = landingpad { ptr, i32 }
          cleanup
  %21 = extractvalue { ptr, i32 } %20, 0
  store ptr %21, ptr %exn.slot, align 8
  %22 = extractvalue { ptr, i32 } %20, 1
  store i32 %22, ptr %ehselector.slot, align 4
  call void @_ZN7Imf_3_211FrameBufferD2Ev(ptr noundef nonnull align 8 dereferenceable(48) %fb) #3
  br label %eh.resume

if.end:                                           ; preds = %invoke.cont17, %if.then
  ret void

eh.resume:                                        ; preds = %lpad
  %exn = load ptr, ptr %exn.slot, align 8
  %sel = load i32, ptr %ehselector.slot, align 4
  %lpad.val = insertvalue { ptr, i32 } poison, ptr %exn, 0
  %lpad.val18 = insertvalue { ptr, i32 } %lpad.val, i32 %sel, 1
  resume { ptr, i32 } %lpad.val18
}