; Function Attrs: mustprogress uwtable
define void @_ZN7Imf_3_219TiledRgbaOutputFile14setFrameBufferEPKNS_4RgbaEmm(ptr nocapture noundef nonnull readonly align 8 dereferenceable(24) %this, ptr noundef %base, i64 noundef %xStride, i64 noundef %yStride) local_unnamed_addr #3 align 2 personality ptr @__gxx_personality_v0 {
entry:
  %fb = alloca %"class.Imf_3_2::FrameBuffer", align 8
  %ref.tmp = alloca %"struct.Imf_3_2::Slice", align 8
  %ref.tmp5 = alloca %"struct.Imf_3_2::Slice", align 8
  %ref.tmp9 = alloca %"struct.Imf_3_2::Slice", align 8
  %ref.tmp13 = alloca %"struct.Imf_3_2::Slice", align 8
  %_toYa = getelementptr inbounds i8, ptr %this, i64 16
  %0 = load ptr, ptr %_toYa, align 8
  %tobool.not = icmp eq ptr %0, null
  br i1 %tobool.not, label %if.else, label %if.then

if.then:                                          ; preds = %entry
  %_fbBase.i = getelementptr inbounds i8, ptr %0, i64 56
  store ptr %base, ptr %_fbBase.i, align 8
  %_fbXStride.i = getelementptr inbounds i8, ptr %0, i64 64
  store i64 %xStride, ptr %_fbXStride.i, align 8
  %_fbYStride.i = getelementptr inbounds i8, ptr %0, i64 72
  store i64 %yStride, ptr %_fbYStride.i, align 8
  br label %if.end

if.else:                                          ; preds = %entry
  %mul = shl i64 %xStride, 3
  %mul3 = shl i64 %yStride, 3
  %1 = getelementptr inbounds i8, ptr %fb, i64 8
  store i32 0, ptr %1, align 8
  %_M_parent.i.i.i.i.i.i = getelementptr inbounds i8, ptr %fb, i64 16
  store ptr null, ptr %_M_parent.i.i.i.i.i.i, align 8
  %_M_left.i.i.i.i.i.i = getelementptr inbounds i8, ptr %fb, i64 24
  store ptr %1, ptr %_M_left.i.i.i.i.i.i, align 8
  %_M_right.i.i.i.i.i.i = getelementptr inbounds i8, ptr %fb, i64 32
  store ptr %1, ptr %_M_right.i.i.i.i.i.i, align 8
  %_M_node_count.i.i.i.i.i.i = getelementptr inbounds i8, ptr %fb, i64 40
  store i64 0, ptr %_M_node_count.i.i.i.i.i.i, align 8
  invoke void @_ZN7Imf_3_25SliceC1ENS_9PixelTypeEPcmmiidbb(ptr noundef nonnull align 8 dereferenceable(50) %ref.tmp, i32 noundef 1, ptr noundef %base, i64 noundef %mul, i64 noundef %mul3, i32 noundef 1, i32 noundef 1, double noundef 0.000000e+00, i1 noundef zeroext false, i1 noundef zeroext false)
          to label %invoke.cont unwind label %lpad

invoke.cont:                                      ; preds = %if.else
  invoke void @_ZN7Imf_3_211FrameBuffer6insertEPKcRKNS_5SliceE(ptr noundef nonnull align 8 dereferenceable(48) %fb, ptr noundef nonnull @.str.4, ptr noundef nonnull align 8 dereferenceable(50) %ref.tmp)
          to label %invoke.cont4 unwind label %lpad

invoke.cont4:                                     ; preds = %invoke.cont
  %g = getelementptr inbounds i8, ptr %base, i64 2
  invoke void @_ZN7Imf_3_25SliceC1ENS_9PixelTypeEPcmmiidbb(ptr noundef nonnull align 8 dereferenceable(50) %ref.tmp5, i32 noundef 1, ptr noundef nonnull %g, i64 noundef %mul, i64 noundef %mul3, i32 noundef 1, i32 noundef 1, double noundef 0.000000e+00, i1 noundef zeroext false, i1 noundef zeroext false)
          to label %invoke.cont7 unwind label %lpad

invoke.cont7:                                     ; preds = %invoke.cont4
  invoke void @_ZN7Imf_3_211FrameBuffer6insertEPKcRKNS_5SliceE(ptr noundef nonnull align 8 dereferenceable(48) %fb, ptr noundef nonnull @.str.5, ptr noundef nonnull align 8 dereferenceable(50) %ref.tmp5)
          to label %invoke.cont8 unwind label %lpad

invoke.cont8:                                     ; preds = %invoke.cont7
  %b = getelementptr inbounds i8, ptr %base, i64 4
  invoke void @_ZN7Imf_3_25SliceC1ENS_9PixelTypeEPcmmiidbb(ptr noundef nonnull align 8 dereferenceable(50) %ref.tmp9, i32 noundef 1, ptr noundef nonnull %b, i64 noundef %mul, i64 noundef %mul3, i32 noundef 1, i32 noundef 1, double noundef 0.000000e+00, i1 noundef zeroext false, i1 noundef zeroext false)
          to label %invoke.cont11 unwind label %lpad

invoke.cont11:                                    ; preds = %invoke.cont8
  invoke void @_ZN7Imf_3_211FrameBuffer6insertEPKcRKNS_5SliceE(ptr noundef nonnull align 8 dereferenceable(48) %fb, ptr noundef nonnull @.str.6, ptr noundef nonnull align 8 dereferenceable(50) %ref.tmp9)
          to label %invoke.cont12 unwind label %lpad

invoke.cont12:                                    ; preds = %invoke.cont11
  %a = getelementptr inbounds i8, ptr %base, i64 6
  invoke void @_ZN7Imf_3_25SliceC1ENS_9PixelTypeEPcmmiidbb(ptr noundef nonnull align 8 dereferenceable(50) %ref.tmp13, i32 noundef 1, ptr noundef nonnull %a, i64 noundef %mul, i64 noundef %mul3, i32 noundef 1, i32 noundef 1, double noundef 0.000000e+00, i1 noundef zeroext false, i1 noundef zeroext false)
          to label %invoke.cont15 unwind label %lpad

invoke.cont15:                                    ; preds = %invoke.cont12
  invoke void @_ZN7Imf_3_211FrameBuffer6insertEPKcRKNS_5SliceE(ptr noundef nonnull align 8 dereferenceable(48) %fb, ptr noundef nonnull @.str.3, ptr noundef nonnull align 8 dereferenceable(50) %ref.tmp13)
          to label %invoke.cont16 unwind label %lpad

invoke.cont16:                                    ; preds = %invoke.cont15
  %_outputFile = getelementptr inbounds i8, ptr %this, i64 8
  %2 = load ptr, ptr %_outputFile, align 8
  invoke void @_ZN7Imf_3_215TiledOutputFile14setFrameBufferERKNS_11FrameBufferE(ptr noundef nonnull align 8 dereferenceable(25) %2, ptr noundef nonnull align 8 dereferenceable(48) %fb)
          to label %invoke.cont17 unwind label %lpad

invoke.cont17:                                    ; preds = %invoke.cont16
  %3 = load ptr, ptr %_M_parent.i.i.i.i.i.i, align 8
  invoke void @_ZNSt8_Rb_treeIN7Imf_3_24NameESt4pairIKS1_NS0_5SliceEESt10_Select1stIS5_ESt4lessIS1_ESaIS5_EE8_M_eraseEPSt13_Rb_tree_nodeIS5_E(ptr noundef nonnull align 8 dereferenceable(48) %fb, ptr noundef %3)
          to label %if.end unwind label %terminate.lpad.i.i.i

terminate.lpad.i.i.i:                             ; preds = %invoke.cont17
  %4 = landingpad { ptr, i32 }
          catch ptr null
  %5 = extractvalue { ptr, i32 } %4, 0
  call void @__clang_call_terminate(ptr %5) #17
  unreachable

lpad:                                             ; preds = %invoke.cont16, %invoke.cont15, %invoke.cont12, %invoke.cont11, %invoke.cont8, %invoke.cont7, %invoke.cont4, %invoke.cont, %if.else
  %6 = landingpad { ptr, i32 }
          cleanup
  call void @_ZN7Imf_3_211FrameBufferD2Ev(ptr noundef nonnull align 8 dereferenceable(48) %fb) #15
  resume { ptr, i32 } %6

if.end:                                           ; preds = %invoke.cont17, %if.then
  ret void
}